target datalayout = "e-m:e-p270:32:32-p271:32:32-p272:64:64-i64:64-i128:128-f80:128-n8:16:32:64-S128"
target triple = "x86_64-pc-linux-gnu"

%struct.cmsPsSamplerCargo = type { ptr, ptr, i32, i32, ptr, ptr, ptr, ptr, i32, i32 }
%struct._cmsStageCLutData = type { %union.anon, ptr, i32, i32 }
%union.anon = type { ptr }
%struct._cms_interp_struc = type { ptr, i32, i32, i32, [15 x i32], [15 x i32], [15 x i32], ptr, %union.cmsInterpFunction }
%union.cmsInterpFunction = type { ptr }

@_cmsPSActualColumn = internal global i32 0, align 4
@.str.66 = private unnamed_addr constant [5 x i8] c"%02x\00", align 1
@.str.67 = private unnamed_addr constant [2 x i8] c"\0A\00", align 1

; Function Attrs: nounwind uwtable
define internal void @WriteByte(ptr noundef %0, i8 noundef zeroext %1) #0 {
  %3 = alloca ptr, align 8
  %4 = alloca i8, align 1
  store ptr %0, ptr %3, align 8
  store i8 %1, ptr %4, align 1
  %5 = load ptr, ptr %3, align 8
  %6 = load i8, ptr %4, align 1
  %7 = zext i8 %6 to i32
  %8 = call i32 (ptr, ptr, ...) @_cmsIOPrintf(ptr noundef %5, ptr noundef @.str.66, i32 noundef %7)
  %9 = load i32, ptr @_cmsPSActualColumn, align 4
  %10 = add nsw i32 %9, 2
  store i32 %10, ptr @_cmsPSActualColumn, align 4
  %11 = load i32, ptr @_cmsPSActualColumn, align 4
  %12 = icmp sgt i32 %11, 60
  br i1 %12, label %13, label %16

13:                                               ; preds = %2
  %14 = load ptr, ptr %3, align 8
  %15 = call i32 (ptr, ptr, ...) @_cmsIOPrintf(ptr noundef %14, ptr noundef @.str.67)
  store i32 0, ptr @_cmsPSActualColumn, align 4
  br label %16

16:                                               ; preds = %13, %2
  ret void
}

; Function Attrs: nounwind uwtable
define internal zeroext i8 @Word2Byte(i16 noundef zeroext %0) #0 {
  %2 = alloca i16, align 2
  store i16 %0, ptr %2, align 2
  %3 = load i16, ptr %2, align 2
  %4 = uitofp i16 %3 to double
  %5 = fdiv double %4, 2.570000e+02
  %6 = fadd double %5, 5.000000e-01
  %7 = call double @llvm.floor.f64(double %6)
  %8 = fptoui double %7 to i8
  ret i8 %8
}

; Function Attrs: nounwind uwtable
define internal i32 @OutputValueSampler(ptr noundef %0, ptr noundef %1, ptr noundef %2) #0 {
  %4 = alloca i32, align 4
  %5 = alloca ptr, align 8
  %6 = alloca ptr, align 8
  %7 = alloca ptr, align 8
  %8 = alloca ptr, align 8
  %9 = alloca i32, align 4
  %10 = alloca ptr, align 8
  %11 = alloca ptr, align 8
  %12 = alloca i32, align 4
  %13 = alloca i16, align 2
  %14 = alloca i8, align 1
  store ptr %0, ptr %5, align 8
  store ptr %1, ptr %6, align 8
  store ptr %2, ptr %7, align 8
  %15 = load ptr, ptr %7, align 8
  store ptr %15, ptr %8, align 8
  %16 = load ptr, ptr %8, align 8
  %17 = getelementptr inbounds %struct.cmsPsSamplerCargo, ptr %16, i32 0, i32 8
  %18 = load i32, ptr %17, align 8
  %19 = icmp ne i32 %18, 0
  br i1 %19, label %20, label %78

20:                                               ; preds = %3
  %21 = load ptr, ptr %5, align 8
  %22 = getelementptr inbounds i16, ptr %21, i64 0
  %23 = load i16, ptr %22, align 2
  %24 = zext i16 %23 to i32
  %25 = icmp eq i32 %24, 65535
  br i1 %25, label %26, label %77

26:                                               ; preds = %20
  %27 = load ptr, ptr %5, align 8
  %28 = getelementptr inbounds i16, ptr %27, i64 1
  %29 = load i16, ptr %28, align 2
  %30 = zext i16 %29 to i32
  %31 = icmp sge i32 %30, 30720
  br i1 %31, label %32, label %76

32:                                               ; preds = %26
  %33 = load ptr, ptr %5, align 8
  %34 = getelementptr inbounds i16, ptr %33, i64 1
  %35 = load i16, ptr %34, align 2
  %36 = zext i16 %35 to i32
  %37 = icmp sle i32 %36, 34816
  br i1 %37, label %38, label %76

38:                                               ; preds = %32
  %39 = load ptr, ptr %5, align 8
  %40 = getelementptr inbounds i16, ptr %39, i64 2
  %41 = load i16, ptr %40, align 2
  %42 = zext i16 %41 to i32
  %43 = icmp sge i32 %42, 30720
  br i1 %43, label %44, label %76

44:                                               ; preds = %38
  %45 = load ptr, ptr %5, align 8
  %46 = getelementptr inbounds i16, ptr %45, i64 2
  %47 = load i16, ptr %46, align 2
  %48 = zext i16 %47 to i32
  %49 = icmp sle i32 %48, 34816
  br i1 %49, label %50, label %76

50:                                               ; preds = %44
  %51 = load ptr, ptr %8, align 8
  %52 = getelementptr inbounds %struct.cmsPsSamplerCargo, ptr %51, i32 0, i32 9
  %53 = load i32, ptr %52, align 4
  %54 = call i32 @_cmsEndPointsBySpace(i32 noundef %53, ptr noundef %11, ptr noundef %10, ptr noundef %12)
  %55 = icmp ne i32 %54, 0
  br i1 %55, label %57, label %56

56:                                               ; preds = %50
  store i32 0, ptr %4, align 4
  br label %186

57:                                               ; preds = %50
  store i32 0, ptr %9, align 4
  br label %58

58:                                               ; preds = %72, %57
  %59 = load i32, ptr %9, align 4
  %60 = load i32, ptr %12, align 4
  %61 = icmp ult i32 %59, %60
  br i1 %61, label %62, label %75

62:                                               ; preds = %58
  %63 = load ptr, ptr %11, align 8
  %64 = load i32, ptr %9, align 4
  %65 = zext i32 %64 to i64
  %66 = getelementptr inbounds i16, ptr %63, i64 %65
  %67 = load i16, ptr %66, align 2
  %68 = load ptr, ptr %6, align 8
  %69 = load i32, ptr %9, align 4
  %70 = zext i32 %69 to i64
  %71 = getelementptr inbounds i16, ptr %68, i64 %70
  store i16 %67, ptr %71, align 2
  br label %72

72:                                               ; preds = %62
  %73 = load i32, ptr %9, align 4
  %74 = add i32 %73, 1
  store i32 %74, ptr %9, align 4
  br label %58, !llvm.loop !15

75:                                               ; preds = %58
  br label %76

76:                                               ; preds = %75, %44, %38, %32, %26
  br label %77

77:                                               ; preds = %76, %20
  br label %78

78:                                               ; preds = %77, %3
  %79 = load ptr, ptr %5, align 8
  %80 = getelementptr inbounds i16, ptr %79, i64 0
  %81 = load i16, ptr %80, align 2
  %82 = zext i16 %81 to i32
  %83 = load ptr, ptr %8, align 8
  %84 = getelementptr inbounds %struct.cmsPsSamplerCargo, ptr %83, i32 0, i32 2
  %85 = load i32, ptr %84, align 8
  %86 = icmp ne i32 %82, %85
  br i1 %86, label %87, label %123

87:                                               ; preds = %78
  %88 = load ptr, ptr %8, align 8
  %89 = getelementptr inbounds %struct.cmsPsSamplerCargo, ptr %88, i32 0, i32 2
  %90 = load i32, ptr %89, align 8
  %91 = icmp ne i32 %90, -1
  br i1 %91, label %92, label %109

92:                                               ; preds = %87
  %93 = load ptr, ptr %8, align 8
  %94 = getelementptr inbounds %struct.cmsPsSamplerCargo, ptr %93, i32 0, i32 1
  %95 = load ptr, ptr %94, align 8
  %96 = load ptr, ptr %8, align 8
  %97 = getelementptr inbounds %struct.cmsPsSamplerCargo, ptr %96, i32 0, i32 7
  %98 = load ptr, ptr %97, align 8
  %99 = call i32 (ptr, ptr, ...) @_cmsIOPrintf(ptr noundef %95, ptr noundef %98)
  %100 = load ptr, ptr %8, align 8
  %101 = getelementptr inbounds %struct.cmsPsSamplerCargo, ptr %100, i32 0, i32 3
  store i32 -1, ptr %101, align 4
  %102 = load ptr, ptr %8, align 8
  %103 = getelementptr inbounds %struct.cmsPsSamplerCargo, ptr %102, i32 0, i32 1
  %104 = load ptr, ptr %103, align 8
  %105 = load ptr, ptr %8, align 8
  %106 = getelementptr inbounds %struct.cmsPsSamplerCargo, ptr %105, i32 0, i32 5
  %107 = load ptr, ptr %106, align 8
  %108 = call i32 (ptr, ptr, ...) @_cmsIOPrintf(ptr noundef %104, ptr noundef %107)
  br label %109

109:                                              ; preds = %92, %87
  store i32 0, ptr @_cmsPSActualColumn, align 4
  %110 = load ptr, ptr %8, align 8
  %111 = getelementptr inbounds %struct.cmsPsSamplerCargo, ptr %110, i32 0, i32 1
  %112 = load ptr, ptr %111, align 8
  %113 = load ptr, ptr %8, align 8
  %114 = getelementptr inbounds %struct.cmsPsSamplerCargo, ptr %113, i32 0, i32 4
  %115 = load ptr, ptr %114, align 8
  %116 = call i32 (ptr, ptr, ...) @_cmsIOPrintf(ptr noundef %112, ptr noundef %115)
  %117 = load ptr, ptr %5, align 8
  %118 = getelementptr inbounds i16, ptr %117, i64 0
  %119 = load i16, ptr %118, align 2
  %120 = zext i16 %119 to i32
  %121 = load ptr, ptr %8, align 8
  %122 = getelementptr inbounds %struct.cmsPsSamplerCargo, ptr %121, i32 0, i32 2
  store i32 %120, ptr %122, align 8
  br label %123

123:                                              ; preds = %109, %78
  %124 = load ptr, ptr %5, align 8
  %125 = getelementptr inbounds i16, ptr %124, i64 1
  %126 = load i16, ptr %125, align 2
  %127 = zext i16 %126 to i32
  %128 = load ptr, ptr %8, align 8
  %129 = getelementptr inbounds %struct.cmsPsSamplerCargo, ptr %128, i32 0, i32 3
  %130 = load i32, ptr %129, align 4
  %131 = icmp ne i32 %127, %130
  br i1 %131, label %132, label %159

132:                                              ; preds = %123
  %133 = load ptr, ptr %8, align 8
  %134 = getelementptr inbounds %struct.cmsPsSamplerCargo, ptr %133, i32 0, i32 3
  %135 = load i32, ptr %134, align 4
  %136 = icmp ne i32 %135, -1
  br i1 %136, label %137, label %145

137:                                              ; preds = %132
  %138 = load ptr, ptr %8, align 8
  %139 = getelementptr inbounds %struct.cmsPsSamplerCargo, ptr %138, i32 0, i32 1
  %140 = load ptr, ptr %139, align 8
  %141 = load ptr, ptr %8, align 8
  %142 = getelementptr inbounds %struct.cmsPsSamplerCargo, ptr %141, i32 0, i32 7
  %143 = load ptr, ptr %142, align 8
  %144 = call i32 (ptr, ptr, ...) @_cmsIOPrintf(ptr noundef %140, ptr noundef %143)
  br label %145

145:                                              ; preds = %137, %132
  %146 = load ptr, ptr %8, align 8
  %147 = getelementptr inbounds %struct.cmsPsSamplerCargo, ptr %146, i32 0, i32 1
  %148 = load ptr, ptr %147, align 8
  %149 = load ptr, ptr %8, align 8
  %150 = getelementptr inbounds %struct.cmsPsSamplerCargo, ptr %149, i32 0, i32 6
  %151 = load ptr, ptr %150, align 8
  %152 = call i32 (ptr, ptr, ...) @_cmsIOPrintf(ptr noundef %148, ptr noundef %151)
  %153 = load ptr, ptr %5, align 8
  %154 = getelementptr inbounds i16, ptr %153, i64 1
  %155 = load i16, ptr %154, align 2
  %156 = zext i16 %155 to i32
  %157 = load ptr, ptr %8, align 8
  %158 = getelementptr inbounds %struct.cmsPsSamplerCargo, ptr %157, i32 0, i32 3
  store i32 %156, ptr %158, align 4
  br label %159

159:                                              ; preds = %145, %123
  store i32 0, ptr %9, align 4
  br label %160

160:                                              ; preds = %182, %159
  %161 = load i32, ptr %9, align 4
  %162 = load ptr, ptr %8, align 8
  %163 = getelementptr inbounds %struct.cmsPsSamplerCargo, ptr %162, i32 0, i32 0
  %164 = load ptr, ptr %163, align 8
  %165 = getelementptr inbounds %struct._cmsStageCLutData, ptr %164, i32 0, i32 1
  %166 = load ptr, ptr %165, align 8
  %167 = getelementptr inbounds %struct._cms_interp_struc, ptr %166, i32 0, i32 3
  %168 = load i32, ptr %167, align 8
  %169 = icmp ult i32 %161, %168
  br i1 %169, label %170, label %185

170:                                              ; preds = %160
  %171 = load ptr, ptr %6, align 8
  %172 = load i32, ptr %9, align 4
  %173 = zext i32 %172 to i64
  %174 = getelementptr inbounds i16, ptr %171, i64 %173
  %175 = load i16, ptr %174, align 2
  store i16 %175, ptr %13, align 2
  %176 = load i16, ptr %13, align 2
  %177 = call zeroext i8 @Word2Byte(i16 noundef zeroext %176)
  store i8 %177, ptr %14, align 1
  %178 = load ptr, ptr %8, align 8
  %179 = getelementptr inbounds %struct.cmsPsSamplerCargo, ptr %178, i32 0, i32 1
  %180 = load ptr, ptr %179, align 8
  %181 = load i8, ptr %14, align 1
  call void @WriteByte(ptr noundef %180, i8 noundef zeroext %181)
  br label %182

182:                                              ; preds = %170
  %183 = load i32, ptr %9, align 4
  %184 = add i32 %183, 1
  store i32 %184, ptr %9, align 4
  br label %160, !llvm.loop !16

185:                                              ; preds = %160
  store i32 1, ptr %4, align 4
  br label %186

186:                                              ; preds = %185, %56
  %187 = load i32, ptr %4, align 4
  ret i32 %187
}