; Function Attrs: nounwind uwtable
define internal range(i32 0, 2) i32 @OutputValueSampler(ptr nocapture noundef readonly %0, ptr nocapture noundef %1, ptr nocapture noundef %2) #0 {
  %4 = alloca ptr, align 8
  %5 = alloca ptr, align 8
  %6 = alloca i32, align 4
  %7 = getelementptr inbounds i8, ptr %2, i64 56
  %8 = load i32, ptr %7, align 8
  %.not = icmp eq i32 %8, 0
  br i1 %.not, label %.loopexit53, label %9

9:                                                ; preds = %3
  %10 = load i16, ptr %0, align 2
  %11 = icmp eq i16 %10, -1
  br i1 %11, label %12, label %.loopexit53

12:                                               ; preds = %9
  %13 = getelementptr inbounds i8, ptr %0, i64 2
  %14 = load i16, ptr %13, align 2
  %15 = add i16 %14, -30720
  %or.cond = icmp ult i16 %15, 4097
  br i1 %or.cond, label %16, label %.loopexit53

16:                                               ; preds = %12
  %17 = getelementptr inbounds i8, ptr %0, i64 4
  %18 = load i16, ptr %17, align 2
  %19 = add i16 %18, -30720
  %or.cond52 = icmp ult i16 %19, 4097
  br i1 %or.cond52, label %20, label %.loopexit53

20:                                               ; preds = %16
  %21 = getelementptr inbounds i8, ptr %2, i64 60
  %22 = load i32, ptr %21, align 4
  %23 = call i32 @_cmsEndPointsBySpace(i32 noundef %22, ptr noundef nonnull %5, ptr noundef nonnull %4, ptr noundef nonnull %6) #9
  %.not47 = icmp eq i32 %23, 0
  br i1 %.not47, label %.loopexit, label %.preheader

.preheader:                                       ; preds = %20
  %24 = load i32, ptr %6, align 4
  %.not57 = icmp eq i32 %24, 0
  br i1 %.not57, label %.loopexit53, label %.lr.ph

.lr.ph:                                           ; preds = %.preheader
  %25 = load ptr, ptr %5, align 8
  %wide.trip.count = zext i32 %24 to i64
  br label %26

26:                                               ; preds = %.lr.ph, %26
  %indvars.iv = phi i64 [ 0, %.lr.ph ], [ %indvars.iv.next, %26 ]
  %27 = getelementptr inbounds i16, ptr %25, i64 %indvars.iv
  %28 = load i16, ptr %27, align 2
  %29 = getelementptr inbounds i16, ptr %1, i64 %indvars.iv
  store i16 %28, ptr %29, align 2
  %indvars.iv.next = add nuw nsw i64 %indvars.iv, 1
  %exitcond.not = icmp eq i64 %indvars.iv.next, %wide.trip.count
  br i1 %exitcond.not, label %.loopexit53, label %26, !llvm.loop !19

.loopexit53:                                      ; preds = %26, %.preheader, %9, %16, %12, %3
  %30 = load i16, ptr %0, align 2
  %31 = zext i16 %30 to i32
  %32 = getelementptr inbounds i8, ptr %2, i64 16
  %33 = load i32, ptr %32, align 8
  %.not48 = icmp eq i32 %33, %31
  br i1 %.not48, label %54, label %34

34:                                               ; preds = %.loopexit53
  %.not49 = icmp eq i32 %33, -1
  br i1 %.not49, label %46, label %35

35:                                               ; preds = %34
  %36 = getelementptr inbounds i8, ptr %2, i64 8
  %37 = load ptr, ptr %36, align 8
  %38 = getelementptr inbounds i8, ptr %2, i64 48
  %39 = load ptr, ptr %38, align 8
  %40 = call i32 (ptr, ptr, ...) @_cmsIOPrintf(ptr noundef %37, ptr noundef %39) #9
  %41 = getelementptr inbounds i8, ptr %2, i64 20
  store i32 -1, ptr %41, align 4
  %42 = load ptr, ptr %36, align 8
  %43 = getelementptr inbounds i8, ptr %2, i64 32
  %44 = load ptr, ptr %43, align 8
  %45 = call i32 (ptr, ptr, ...) @_cmsIOPrintf(ptr noundef %42, ptr noundef %44) #9
  br label %46

46:                                               ; preds = %35, %34
  store i32 0, ptr @_cmsPSActualColumn, align 4
  %47 = getelementptr inbounds i8, ptr %2, i64 8
  %48 = load ptr, ptr %47, align 8
  %49 = getelementptr inbounds i8, ptr %2, i64 24
  %50 = load ptr, ptr %49, align 8
  %51 = call i32 (ptr, ptr, ...) @_cmsIOPrintf(ptr noundef %48, ptr noundef %50) #9
  %52 = load i16, ptr %0, align 2
  %53 = zext i16 %52 to i32
  store i32 %53, ptr %32, align 8
  br label %54

54:                                               ; preds = %46, %.loopexit53
  %55 = getelementptr inbounds i8, ptr %0, i64 2
  %56 = load i16, ptr %55, align 2
  %57 = zext i16 %56 to i32
  %58 = getelementptr inbounds i8, ptr %2, i64 20
  %59 = load i32, ptr %58, align 4
  %.not50 = icmp eq i32 %59, %57
  br i1 %.not50, label %75, label %60

60:                                               ; preds = %54
  %.not51 = icmp eq i32 %59, -1
  br i1 %.not51, label %67, label %61

61:                                               ; preds = %60
  %62 = getelementptr inbounds i8, ptr %2, i64 8
  %63 = load ptr, ptr %62, align 8
  %64 = getelementptr inbounds i8, ptr %2, i64 48
  %65 = load ptr, ptr %64, align 8
  %66 = call i32 (ptr, ptr, ...) @_cmsIOPrintf(ptr noundef %63, ptr noundef %65) #9
  br label %67

67:                                               ; preds = %61, %60
  %68 = getelementptr inbounds i8, ptr %2, i64 8
  %69 = load ptr, ptr %68, align 8
  %70 = getelementptr inbounds i8, ptr %2, i64 40
  %71 = load ptr, ptr %70, align 8
  %72 = call i32 (ptr, ptr, ...) @_cmsIOPrintf(ptr noundef %69, ptr noundef %71) #9
  %73 = load i16, ptr %55, align 2
  %74 = zext i16 %73 to i32
  store i32 %74, ptr %58, align 4
  br label %75

75:                                               ; preds = %67, %54
  %76 = load ptr, ptr %2, align 8
  %77 = getelementptr inbounds i8, ptr %76, i64 8
  %78 = load ptr, ptr %77, align 8
  %79 = getelementptr inbounds i8, ptr %78, i64 16
  %80 = load i32, ptr %79, align 8
  %.not58 = icmp eq i32 %80, 0
  br i1 %.not58, label %.loopexit, label %.lr.ph56

.lr.ph56:                                         ; preds = %75
  %81 = getelementptr inbounds i8, ptr %2, i64 8
  br label %82

82:                                               ; preds = %.lr.ph56, %WriteByte.exit
  %indvars.iv60 = phi i64 [ 0, %.lr.ph56 ], [ %indvars.iv.next61, %WriteByte.exit ]
  %83 = getelementptr inbounds i16, ptr %1, i64 %indvars.iv60
  %84 = load i16, ptr %83, align 2
  %85 = uitofp i16 %84 to double
  %86 = fdiv double %85, 2.570000e+02
  %87 = fadd double %86, 5.000000e-01
  %88 = call double @llvm.floor.f64(double %87)
  %89 = fptoui double %88 to i8
  %90 = load ptr, ptr %81, align 8
  %91 = zext i8 %89 to i32
  %92 = call i32 (ptr, ptr, ...) @_cmsIOPrintf(ptr noundef %90, ptr noundef nonnull @.str.66, i32 noundef %91) #9
  %93 = load i32, ptr @_cmsPSActualColumn, align 4
  %94 = add nsw i32 %93, 2
  store i32 %94, ptr @_cmsPSActualColumn, align 4
  %95 = icmp sgt i32 %93, 58
  br i1 %95, label %96, label %WriteByte.exit

96:                                               ; preds = %82
  %97 = call i32 (ptr, ptr, ...) @_cmsIOPrintf(ptr noundef %90, ptr noundef nonnull @.str.67) #9
  store i32 0, ptr @_cmsPSActualColumn, align 4
  br label %WriteByte.exit

WriteByte.exit:                                   ; preds = %82, %96
  %indvars.iv.next61 = add nuw nsw i64 %indvars.iv60, 1
  %98 = load ptr, ptr %2, align 8
  %99 = getelementptr inbounds i8, ptr %98, i64 8
  %100 = load ptr, ptr %99, align 8
  %101 = getelementptr inbounds i8, ptr %100, i64 16
  %102 = load i32, ptr %101, align 8
  %103 = zext i32 %102 to i64
  %104 = icmp ult i64 %indvars.iv.next61, %103
  br i1 %104, label %82, label %.loopexit, !llvm.loop !20

.loopexit:                                        ; preds = %WriteByte.exit, %75, %20
  %.0 = phi i32 [ 0, %20 ], [ 1, %75 ], [ 1, %WriteByte.exit ]
  ret i32 %.0
}